; Function Attrs: mustprogress uwtable
define noundef zeroext i1 @_ZN8facebook5velox6common9Tokenizer7hasNextEv(ptr noundef nonnull align 8 dereferenceable(72) %this) local_unnamed_addr #0 align 2 personality ptr @__gxx_personality_v0 {
entry:
  %ref.tmp.i = alloca %"class.std::unique_ptr", align 8
  %state = getelementptr inbounds i8, ptr %this, i64 52
  %0 = load i32, ptr %state, align 4
  switch i32 %0, label %sw.epilog [
    i32 2, label %return
    i32 0, label %sw.bb2
    i32 3, label %sw.bb4
  ]

sw.bb2:                                           ; preds = %entry
  br label %return

sw.bb4:                                           ; preds = %entry
  tail call void @llvm.trap()
  unreachable

sw.epilog:                                        ; preds = %entry
  call void @llvm.lifetime.start.p0(i64 8, ptr nonnull %ref.tmp.i)
  store i32 3, ptr %state, align 4
  call void @_ZN8facebook5velox6common9Tokenizer11computeNextEv(ptr nonnull sret(%"class.std::unique_ptr") align 8 %ref.tmp.i, ptr noundef nonnull align 8 dereferenceable(72) %this)
  %next_.i = getelementptr inbounds i8, ptr %this, i64 64
  %1 = load ptr, ptr %ref.tmp.i, align 8
  %2 = load ptr, ptr %next_.i, align 8
  store ptr %1, ptr %next_.i, align 8
  %tobool.not.i.i.i.i.i = icmp eq ptr %2, null
  br i1 %tobool.not.i.i.i.i.i, label %_ZNSt10unique_ptrIN8facebook5velox6common8Subfield11PathElementESt14default_deleteIS4_EED2Ev.exit.i, label %_ZNKSt14default_deleteIN8facebook5velox6common8Subfield11PathElementEEclEPS4_.exit.i.i.i.i.i

_ZNKSt14default_deleteIN8facebook5velox6common8Subfield11PathElementEEclEPS4_.exit.i.i.i.i.i: ; preds = %sw.epilog
  %vtable.i.i.i.i.i.i = load ptr, ptr %2, align 8
  %vfn.i.i.i.i.i.i = getelementptr inbounds i8, ptr %vtable.i.i.i.i.i.i, i64 8
  %3 = load ptr, ptr %vfn.i.i.i.i.i.i, align 8
  tail call void %3(ptr noundef nonnull align 8 dereferenceable(8) %2) #20
  br label %_ZNSt10unique_ptrIN8facebook5velox6common8Subfield11PathElementESt14default_deleteIS4_EED2Ev.exit.i

_ZNSt10unique_ptrIN8facebook5velox6common8Subfield11PathElementESt14default_deleteIS4_EED2Ev.exit.i: ; preds = %_ZNKSt14default_deleteIN8facebook5velox6common8Subfield11PathElementEEclEPS4_.exit.i.i.i.i.i, %sw.epilog
  %4 = load i32, ptr %state, align 4
  %cmp.not.i = icmp ne i32 %4, 2
  br i1 %cmp.not.i, label %if.then.i, label %_ZN8facebook5velox6common9Tokenizer16tryToComputeNextEv.exit

if.then.i:                                        ; preds = %_ZNSt10unique_ptrIN8facebook5velox6common8Subfield11PathElementESt14default_deleteIS4_EED2Ev.exit.i
  store i32 0, ptr %state, align 4
  br label %_ZN8facebook5velox6common9Tokenizer16tryToComputeNextEv.exit

_ZN8facebook5velox6common9Tokenizer16tryToComputeNextEv.exit: ; preds = %_ZNSt10unique_ptrIN8facebook5velox6common8Subfield11PathElementESt14default_deleteIS4_EED2Ev.exit.i, %if.then.i
  call void @llvm.lifetime.end.p0(i64 8, ptr nonnull %ref.tmp.i)
  br label %return

return:                                           ; preds = %entry, %_ZN8facebook5velox6common9Tokenizer16tryToComputeNextEv.exit, %sw.bb2
  %retval.0 = phi i1 [ %cmp.not.i, %_ZN8facebook5velox6common9Tokenizer16tryToComputeNextEv.exit ], [ true, %sw.bb2 ], [ false, %entry ]
  ret i1 %retval.0
}